target datalayout = "e-m:e-p270:32:32-p271:32:32-p272:64:64-i64:64-i128:128-f80:128-n8:16:32:64-S128"
target triple = "x86_64-pc-linux-gnu"

%"struct.llvm::Align" = type { i8 }
%"class.llvm::MachineFrameInfo" = type { %"struct.llvm::Align", i8, i8, %"class.std::vector", i32, i8, i8, i8, i8, i8, i64, i64, %"struct.llvm::Align", i8, i8, i32, i32, i64, i32, %"class.std::vector.0", i8, %"class.llvm::SmallVector", i64, %"struct.llvm::Align", i8, i8, i8, i8, i8, i8, ptr, ptr, i64 }
%"class.std::vector" = type { %"struct.std::_Vector_base" }
%"struct.std::_Vector_base" = type { %"struct.std::_Vector_base<llvm::MachineFrameInfo::StackObject, std::allocator<llvm::MachineFrameInfo::StackObject>>::_Vector_impl" }
%"struct.std::_Vector_base<llvm::MachineFrameInfo::StackObject, std::allocator<llvm::MachineFrameInfo::StackObject>>::_Vector_impl" = type { %"struct.std::_Vector_base<llvm::MachineFrameInfo::StackObject, std::allocator<llvm::MachineFrameInfo::StackObject>>::_Vector_impl_data" }
%"struct.std::_Vector_base<llvm::MachineFrameInfo::StackObject, std::allocator<llvm::MachineFrameInfo::StackObject>>::_Vector_impl_data" = type { ptr, ptr, ptr }
%"class.std::vector.0" = type { %"struct.std::_Vector_base.1" }
%"struct.std::_Vector_base.1" = type { %"struct.std::_Vector_base<llvm::CalleeSavedInfo, std::allocator<llvm::CalleeSavedInfo>>::_Vector_impl" }
%"struct.std::_Vector_base<llvm::CalleeSavedInfo, std::allocator<llvm::CalleeSavedInfo>>::_Vector_impl" = type { %"struct.std::_Vector_base<llvm::CalleeSavedInfo, std::allocator<llvm::CalleeSavedInfo>>::_Vector_impl_data" }
%"struct.std::_Vector_base<llvm::CalleeSavedInfo, std::allocator<llvm::CalleeSavedInfo>>::_Vector_impl_data" = type { ptr, ptr, ptr }
%"class.llvm::SmallVector" = type { %"class.llvm::SmallVectorImpl", %"struct.llvm::SmallVectorStorage" }
%"class.llvm::SmallVectorImpl" = type { %"class.llvm::SmallVectorTemplateBase" }
%"class.llvm::SmallVectorTemplateBase" = type { %"class.llvm::SmallVectorTemplateCommon" }
%"class.llvm::SmallVectorTemplateCommon" = type { %"class.llvm::SmallVectorBase" }
%"class.llvm::SmallVectorBase" = type { ptr, i32, i32 }
%"struct.llvm::SmallVectorStorage" = type { [512 x i8] }

; Function Attrs: mustprogress nounwind uwtable
define linkonce_odr hidden noundef zeroext i1 @_ZN4llvmltENS_5AlignES0_(i8 %0, i8 %1) #0 comdat {
  %3 = alloca %"struct.llvm::Align", align 1
  %4 = alloca %"struct.llvm::Align", align 1
  %5 = getelementptr inbounds nuw %"struct.llvm::Align", ptr %3, i32 0, i32 0
  store i8 %0, ptr %5, align 1
  %6 = getelementptr inbounds nuw %"struct.llvm::Align", ptr %4, i32 0, i32 0
  store i8 %1, ptr %6, align 1
  %7 = getelementptr inbounds nuw %"struct.llvm::Align", ptr %3, i32 0, i32 0
  %8 = load i8, ptr %7, align 1
  %9 = zext i8 %8 to i32
  %10 = getelementptr inbounds nuw %"struct.llvm::Align", ptr %4, i32 0, i32 0
  %11 = load i8, ptr %10, align 1
  %12 = zext i8 %11 to i32
  %13 = icmp slt i32 %9, %12
  ret i1 %13
}

; Function Attrs: mustprogress nounwind uwtable
define linkonce_odr hidden noundef zeroext i1 @_ZN4llvmleENS_5AlignES0_(i8 %0, i8 %1) #0 comdat {
  %3 = alloca %"struct.llvm::Align", align 1
  %4 = alloca %"struct.llvm::Align", align 1
  %5 = getelementptr inbounds nuw %"struct.llvm::Align", ptr %3, i32 0, i32 0
  store i8 %0, ptr %5, align 1
  %6 = getelementptr inbounds nuw %"struct.llvm::Align", ptr %4, i32 0, i32 0
  store i8 %1, ptr %6, align 1
  %7 = getelementptr inbounds nuw %"struct.llvm::Align", ptr %3, i32 0, i32 0
  %8 = load i8, ptr %7, align 1
  %9 = zext i8 %8 to i32
  %10 = getelementptr inbounds nuw %"struct.llvm::Align", ptr %4, i32 0, i32 0
  %11 = load i8, ptr %10, align 1
  %12 = zext i8 %11 to i32
  %13 = icmp sle i32 %9, %12
  ret i1 %13
}

; Function Attrs: mustprogress nounwind uwtable
define dso_local void @_ZN4llvm16MachineFrameInfo18ensureMaxAlignmentENS_5AlignE(ptr noundef nonnull align 8 dereferenceable(696) %0, i8 %1) #0 align 2 {
  %3 = alloca %"struct.llvm::Align", align 1
  %4 = alloca ptr, align 8
  %5 = alloca %"struct.llvm::Align", align 1
  %6 = alloca %"struct.llvm::Align", align 1
  %7 = getelementptr inbounds nuw %"struct.llvm::Align", ptr %3, i32 0, i32 0
  store i8 %1, ptr %7, align 1
  store ptr %0, ptr %4, align 8
  %8 = load ptr, ptr %4, align 8
  %9 = getelementptr inbounds nuw %"class.llvm::MachineFrameInfo", ptr %8, i32 0, i32 1
  %10 = load i8, ptr %9, align 1
  %11 = trunc i8 %10 to i1
  br i1 %11, label %13, label %12

12:                                               ; preds = %2
  br label %13

13:                                               ; preds = %12, %2
  %14 = getelementptr inbounds nuw %"class.llvm::MachineFrameInfo", ptr %8, i32 0, i32 12
  call void @llvm.memcpy.p0.p0.i64(ptr align 1 %5, ptr align 8 %14, i64 1, i1 false)
  call void @llvm.memcpy.p0.p0.i64(ptr align 1 %6, ptr align 1 %3, i64 1, i1 false)
  %15 = getelementptr inbounds nuw %"struct.llvm::Align", ptr %5, i32 0, i32 0
  %16 = load i8, ptr %15, align 1
  %17 = getelementptr inbounds nuw %"struct.llvm::Align", ptr %6, i32 0, i32 0
  %18 = load i8, ptr %17, align 1
  %19 = call noundef zeroext i1 @_ZN4llvmltENS_5AlignES0_(i8 %16, i8 %18)
  br i1 %19, label %20, label %22

20:                                               ; preds = %13
  %21 = getelementptr inbounds nuw %"class.llvm::MachineFrameInfo", ptr %8, i32 0, i32 12
  call void @llvm.memcpy.p0.p0.i64(ptr align 8 %21, ptr align 1 %3, i64 1, i1 false)
  br label %22

22:                                               ; preds = %20, %13
  ret void
}

; Function Attrs: mustprogress nounwind uwtable
define linkonce_odr hidden noundef i64 @_ZNKSt6vectorIN4llvm16MachineFrameInfo11StackObjectESaIS2_EE4sizeEv(ptr noundef nonnull align 8 dereferenceable(24) %0) #0 comdat align 2 {
  %2 = alloca ptr, align 8
  store ptr %0, ptr %2, align 8
  %3 = load ptr, ptr %2, align 8
  %4 = getelementptr inbounds nuw %"struct.std::_Vector_base", ptr %3, i32 0, i32 0
  %5 = getelementptr inbounds nuw %"struct.std::_Vector_base<llvm::MachineFrameInfo::StackObject, std::allocator<llvm::MachineFrameInfo::StackObject>>::_Vector_impl_data", ptr %4, i32 0, i32 1
  %6 = load ptr, ptr %5, align 8
  %7 = getelementptr inbounds nuw %"struct.std::_Vector_base", ptr %3, i32 0, i32 0
  %8 = getelementptr inbounds nuw %"struct.std::_Vector_base<llvm::MachineFrameInfo::StackObject, std::allocator<llvm::MachineFrameInfo::StackObject>>::_Vector_impl_data", ptr %7, i32 0, i32 0
  %9 = load ptr, ptr %8, align 8
  %10 = ptrtoint ptr %6 to i64
  %11 = ptrtoint ptr %9 to i64
  %12 = sub i64 %10, %11
  %13 = sdiv exact i64 %12, 40
  ret i64 %13
}

; Function Attrs: mustprogress nounwind uwtable
define internal i8 @_ZL19clampStackAlignmentbN4llvm5AlignES0_(i1 noundef zeroext %0, i8 %1, i8 %2) #0 {
  %4 = alloca %"struct.llvm::Align", align 1
  %5 = alloca %"struct.llvm::Align", align 1
  %6 = alloca %"struct.llvm::Align", align 1
  %7 = alloca i8, align 1
  %8 = alloca %"struct.llvm::Align", align 1
  %9 = alloca %"struct.llvm::Align", align 1
  %10 = getelementptr inbounds nuw %"struct.llvm::Align", ptr %5, i32 0, i32 0
  store i8 %1, ptr %10, align 1
  %11 = getelementptr inbounds nuw %"struct.llvm::Align", ptr %6, i32 0, i32 0
  store i8 %2, ptr %11, align 1
  %12 = zext i1 %0 to i8
  store i8 %12, ptr %7, align 1
  %13 = load i8, ptr %7, align 1
  %14 = trunc i8 %13 to i1
  br i1 %14, label %15, label %21

15:                                               ; preds = %3
  call void @llvm.memcpy.p0.p0.i64(ptr align 1 %8, ptr align 1 %5, i64 1, i1 false)
  call void @llvm.memcpy.p0.p0.i64(ptr align 1 %9, ptr align 1 %6, i64 1, i1 false)
  %16 = getelementptr inbounds nuw %"struct.llvm::Align", ptr %8, i32 0, i32 0
  %17 = load i8, ptr %16, align 1
  %18 = getelementptr inbounds nuw %"struct.llvm::Align", ptr %9, i32 0, i32 0
  %19 = load i8, ptr %18, align 1
  %20 = call noundef zeroext i1 @_ZN4llvmleENS_5AlignES0_(i8 %17, i8 %19)
  br i1 %20, label %21, label %22

21:                                               ; preds = %15, %3
  call void @llvm.memcpy.p0.p0.i64(ptr align 1 %4, ptr align 1 %5, i64 1, i1 false)
  br label %25

22:                                               ; preds = %15
  br label %23

23:                                               ; preds = %22
  br label %24

24:                                               ; preds = %23
  call void @llvm.memcpy.p0.p0.i64(ptr align 1 %4, ptr align 1 %6, i64 1, i1 false)
  br label %25

25:                                               ; preds = %24, %21
  %26 = getelementptr inbounds nuw %"struct.llvm::Align", ptr %4, i32 0, i32 0
  %27 = load i8, ptr %26, align 1
  ret i8 %27
}

; Function Attrs: mustprogress nounwind uwtable
define dso_local noundef i32 @_ZN4llvm16MachineFrameInfo22CreateSpillStackObjectEmNS_5AlignE(ptr noundef nonnull align 8 dereferenceable(696) %0, i64 noundef %1, i8 %2) #0 align 2 {
  %4 = alloca %"struct.llvm::Align", align 1
  %5 = alloca ptr, align 8
  %6 = alloca i64, align 8
  %7 = alloca %"struct.llvm::Align", align 1
  %8 = alloca %"struct.llvm::Align", align 1
  %9 = alloca %"struct.llvm::Align", align 1
  %10 = alloca %"struct.llvm::Align", align 1
  %11 = alloca i32, align 4
  %12 = alloca %"struct.llvm::Align", align 1
  %13 = getelementptr inbounds nuw %"struct.llvm::Align", ptr %4, i32 0, i32 0
  store i8 %2, ptr %13, align 1
  store ptr %0, ptr %5, align 8
  store i64 %1, ptr %6, align 8
  %14 = load ptr, ptr %5, align 8
  %15 = getelementptr inbounds nuw %"class.llvm::MachineFrameInfo", ptr %14, i32 0, i32 1
  %16 = load i8, ptr %15, align 1
  %17 = trunc i8 %16 to i1
  %18 = xor i1 %17, true
  call void @llvm.memcpy.p0.p0.i64(ptr align 1 %8, ptr align 1 %4, i64 1, i1 false)
  %19 = getelementptr inbounds nuw %"class.llvm::MachineFrameInfo", ptr %14, i32 0, i32 0
  call void @llvm.memcpy.p0.p0.i64(ptr align 1 %9, ptr align 8 %19, i64 1, i1 false)
  %20 = getelementptr inbounds nuw %"struct.llvm::Align", ptr %8, i32 0, i32 0
  %21 = load i8, ptr %20, align 1
  %22 = getelementptr inbounds nuw %"struct.llvm::Align", ptr %9, i32 0, i32 0
  %23 = load i8, ptr %22, align 1
  %24 = call i8 @_ZL19clampStackAlignmentbN4llvm5AlignES0_(i1 noundef zeroext %18, i8 %21, i8 %23)
  %25 = getelementptr inbounds nuw %"struct.llvm::Align", ptr %7, i32 0, i32 0
  store i8 %24, ptr %25, align 1
  call void @llvm.memcpy.p0.p0.i64(ptr align 1 %4, ptr align 1 %7, i64 1, i1 false)
  %26 = load i64, ptr %6, align 8
  call void @llvm.memcpy.p0.p0.i64(ptr align 1 %10, ptr align 1 %4, i64 1, i1 false)
  %27 = getelementptr inbounds nuw %"struct.llvm::Align", ptr %10, i32 0, i32 0
  %28 = load i8, ptr %27, align 1
  %29 = call noundef i32 @_ZN4llvm16MachineFrameInfo17CreateStackObjectEmNS_5AlignEbPKNS_10AllocaInstEh(ptr noundef nonnull align 8 dereferenceable(696) %14, i64 noundef %26, i8 %28, i1 noundef zeroext true, ptr noundef null, i8 noundef zeroext 0)
  %30 = getelementptr inbounds nuw %"class.llvm::MachineFrameInfo", ptr %14, i32 0, i32 3
  %31 = call noundef i64 @_ZNKSt6vectorIN4llvm16MachineFrameInfo11StackObjectESaIS2_EE4sizeEv(ptr noundef nonnull align 8 dereferenceable(24) %30) #9
  %32 = trunc i64 %31 to i32
  %33 = getelementptr inbounds nuw %"class.llvm::MachineFrameInfo", ptr %14, i32 0, i32 4
  %34 = load i32, ptr %33, align 8
  %35 = sub i32 %32, %34
  %36 = sub i32 %35, 1
  store i32 %36, ptr %11, align 4
  call void @llvm.memcpy.p0.p0.i64(ptr align 1 %12, ptr align 1 %4, i64 1, i1 false)
  %37 = getelementptr inbounds nuw %"struct.llvm::Align", ptr %12, i32 0, i32 0
  %38 = load i8, ptr %37, align 1
  call void @_ZN4llvm16MachineFrameInfo18ensureMaxAlignmentENS_5AlignE(ptr noundef nonnull align 8 dereferenceable(696) %14, i8 %38)
  %39 = load i32, ptr %11, align 4
  ret i32 %39
}