; Function Attrs: mustprogress nounwind uwtable
define dso_local noundef i32 @_ZN4llvm16MachineFrameInfo22CreateSpillStackObjectEmNS_5AlignE(ptr nocapture noundef nonnull align 8 dereferenceable(696) %0, i64 noundef %1, i8 %2) local_unnamed_addr #2 align 2 {
  %4 = getelementptr inbounds nuw i8, ptr %0, i64 1
  %5 = load i8, ptr %4, align 1
  %6 = trunc i8 %5 to i1
  %.sroa.02.0.copyload = load i8, ptr %0, align 8
  %spec.select.i = tail call i8 @llvm.umin.i8(i8 %2, i8 %.sroa.02.0.copyload)
  %.sroa.04.0.i = select i1 %6, i8 %2, i8 %spec.select.i
  %7 = tail call noundef i32 @_ZN4llvm16MachineFrameInfo17CreateStackObjectEmNS_5AlignEbPKNS_10AllocaInstEh(ptr noundef nonnull align 8 dereferenceable(696) %0, i64 noundef %1, i8 %.sroa.04.0.i, i1 noundef zeroext true, ptr noundef null, i8 noundef zeroext 0)
  %8 = getelementptr inbounds nuw i8, ptr %0, i64 8
  %9 = getelementptr inbounds i8, ptr %0, i64 16
  %10 = load ptr, ptr %9, align 8
  %11 = load ptr, ptr %8, align 8
  %12 = getelementptr inbounds nuw i8, ptr %0, i64 32
  %13 = load i32, ptr %12, align 8
  %14 = getelementptr inbounds nuw i8, ptr %0, i64 64
  %.sroa.01.0.copyload.i = load i8, ptr %14, align 8
  %15 = icmp ult i8 %.sroa.01.0.copyload.i, %.sroa.04.0.i
  br i1 %15, label %16, label %_ZN4llvm16MachineFrameInfo18ensureMaxAlignmentENS_5AlignE.exit

16:                                               ; preds = %3
  store i8 %.sroa.04.0.i, ptr %14, align 8
  br label %_ZN4llvm16MachineFrameInfo18ensureMaxAlignmentENS_5AlignE.exit

_ZN4llvm16MachineFrameInfo18ensureMaxAlignmentENS_5AlignE.exit: ; preds = %3, %16
  %17 = xor i32 %13, -1
  %18 = ptrtoint ptr %10 to i64
  %19 = ptrtoint ptr %11 to i64
  %20 = sub i64 %18, %19
  %21 = sdiv exact i64 %20, 40
  %22 = trunc i64 %21 to i32
  %23 = add i32 %22, %17
  ret i32 %23
}